; Function Attrs: mustprogress uwtable
define ptr @uloc_toLegacyKey_77(ptr noundef %0) local_unnamed_addr #1 personality ptr @__gxx_personality_v0 {
  %2 = alloca %"class.std::optional.30", align 8
  %3 = icmp eq ptr %0, null
  br i1 %3, label %15, label %4

4:                                                ; preds = %1
  %5 = load i8, ptr %0, align 1, !tbaa !20
  %6 = icmp eq i8 %5, 0
  br i1 %6, label %15, label %7

7:                                                ; preds = %4
  call void @llvm.lifetime.start.p0(i64 24, ptr nonnull %2) #20
  %8 = tail call noundef i64 @strlen(ptr noundef nonnull dereferenceable(1) %0) #20
  call void @_Z34ulocimp_toLegacyKeyWithFallback_77St17basic_string_viewIcSt11char_traitsIcEE(ptr dead_on_unwind nonnull writable sret(%"class.std::optional.30") align 8 %2, i64 %8, ptr nonnull %0)
  %9 = getelementptr inbounds nuw i8, ptr %2, i64 16
  %10 = load i8, ptr %9, align 8, !tbaa !141, !range !74, !noundef !75
  %11 = trunc nuw i8 %10 to i1
  %12 = getelementptr inbounds nuw i8, ptr %2, i64 8
  %13 = load ptr, ptr %12, align 8
  %14 = select i1 %11, ptr %13, ptr null
  call void @llvm.lifetime.end.p0(i64 24, ptr nonnull %2) #20
  br label %15

15:                                               ; preds = %1, %4, %7
  %.0 = phi ptr [ %14, %7 ], [ null, %4 ], [ null, %1 ]
  ret ptr %.0
}